target datalayout = "e-m:e-p270:32:32-p271:32:32-p272:64:64-i64:64-i128:128-f80:128-n8:16:32:64-S128"
target triple = "x86_64-pc-linux-gnu"

@stdout = external global ptr, align 8
@one_liner = external global i32, align 4
@scontrol_print_topo.topo_info_msg = internal global ptr null, align 8
@.str.13 = private unnamed_addr constant [22 x i8] c"slurm_load_topo error\00", align 1

; Function Attrs: nounwind uwtable
define dso_local void @scontrol_print_topo(ptr noundef %0) #0 {
  %2 = alloca ptr, align 8
  store ptr %0, ptr %2, align 8
  %3 = load ptr, ptr @scontrol_print_topo.topo_info_msg, align 8
  %4 = icmp eq ptr %3, null
  br i1 %4, label %5, label %9

5:                                                ; preds = %1
  %6 = call i32 @slurm_load_topo(ptr noundef @scontrol_print_topo.topo_info_msg)
  %7 = icmp ne i32 %6, 0
  br i1 %7, label %8, label %9

8:                                                ; preds = %5
  call void @slurm_perror(ptr noundef @.str.13)
  br label %14

9:                                                ; preds = %5, %1
  %10 = load ptr, ptr @stdout, align 8
  %11 = load ptr, ptr @scontrol_print_topo.topo_info_msg, align 8
  %12 = load ptr, ptr %2, align 8
  %13 = load i32, ptr @one_liner, align 4
  call void @slurm_print_topo_info_msg(ptr noundef %10, ptr noundef %11, ptr noundef %12, i32 noundef %13)
  br label %14

14:                                               ; preds = %9, %8
  ret void
}