; Function Attrs: nounwind uwtable
define dso_local void @scontrol_print_topo(ptr noundef %0) local_unnamed_addr #0 {
  %2 = load ptr, ptr @scontrol_print_topo.topo_info_msg, align 8
  %3 = icmp eq ptr %2, null
  br i1 %3, label %4, label %7

4:                                                ; preds = %1
  %5 = tail call i32 @slurm_load_topo(ptr noundef nonnull @scontrol_print_topo.topo_info_msg) #9
  %.not = icmp eq i32 %5, 0
  br i1 %.not, label %._crit_edge, label %6

._crit_edge:                                      ; preds = %4
  %.pre = load ptr, ptr @scontrol_print_topo.topo_info_msg, align 8
  br label %7

6:                                                ; preds = %4
  tail call void @slurm_perror(ptr noundef nonnull @.str.13) #9
  br label %11

7:                                                ; preds = %._crit_edge, %1
  %8 = phi ptr [ %.pre, %._crit_edge ], [ %2, %1 ]
  %9 = load ptr, ptr @stdout, align 8
  %10 = load i32, ptr @one_liner, align 4
  tail call void @slurm_print_topo_info_msg(ptr noundef %9, ptr noundef %8, ptr noundef %0, i32 noundef %10) #9
  br label %11

11:                                               ; preds = %7, %6
  ret void
}